; Function Attrs: mustprogress nounwind uwtable
define hidden noundef range(i32 -1, 2) i32 @_ZN13ObjectMonitor7TryLockEP10JavaThread(ptr noundef nonnull align 8 dereferenceable(200) %0, ptr noundef %1) local_unnamed_addr #0 align 2 {
  %3 = getelementptr inbounds i8, ptr %0, i64 64
  %4 = load volatile ptr, ptr %3, align 8
  %.not = icmp eq ptr %4, null
  br i1 %.not, label %5, label %_ZN13ObjectMonitor18try_set_owner_fromEPvS0_.exit

5:                                                ; preds = %2
  %6 = tail call noundef ptr asm sideeffect "lock cmpxchgq $1,($3)", "={ax},r,{ax},r,~{cc},~{memory},~{dirflag},~{fpsr},~{flags}"(ptr %1, ptr null, ptr nonnull %3) #12, !srcloc !8
  %7 = icmp eq ptr %6, null
  br i1 %7, label %8, label %_ZN13ObjectMonitor18try_set_owner_fromEPvS0_.exit

8:                                                ; preds = %5
  %9 = load volatile ptr, ptr getelementptr inbounds (i8, ptr @_ZN16LogTagSetMappingILN6LogTag4typeE90ELS1_106ELS1_0ELS1_0ELS1_0ELS1_0EE7_tagsetE, i64 48), align 8
  %.not.i = icmp eq ptr %9, null
  br i1 %.not.i, label %_ZN13ObjectMonitor18try_set_owner_fromEPvS0_.exit, label %10

10:                                               ; preds = %8
  %11 = ptrtoint ptr %0 to i64
  %12 = ptrtoint ptr %1 to i64
  tail call void (ptr, ...) @_ZN7LogImplILN6LogTag4typeE90ELS1_106ELS1_0ELS1_0ELS1_0ELS1_0EE5writeILN8LogLevel4typeE1EEEvPKcz(ptr noundef nonnull @.str.54, i64 noundef %11, i64 noundef 0, i64 noundef %12)
  br label %_ZN13ObjectMonitor18try_set_owner_fromEPvS0_.exit

_ZN13ObjectMonitor18try_set_owner_fromEPvS0_.exit: ; preds = %10, %8, %5, %2
  %.0 = phi i32 [ 0, %2 ], [ -1, %5 ], [ 1, %8 ], [ 1, %10 ]
  ret i32 %.0
}